; Function Attrs: nounwind uwtable
define ptr @l___private_Lean_Elab_Deriving_Inhabited_0__Lean_Elab_mkInhabitedInstanceUsing_addLocalInstancesForParams(i8 noundef zeroext %0, ptr noundef readnone captures(none) %1, ptr noundef %2, ptr noundef %3, ptr noundef %4, ptr noundef %5, ptr noundef %6, ptr noundef %7, ptr noundef %8, ptr noundef %9, ptr noundef %10) local_unnamed_addr #1 {
  %12 = icmp eq i8 %0, 0
  br i1 %12, label %13, label %24

13:                                               ; preds = %11
  %14 = ptrtoint ptr %2 to i64
  %15 = and i64 %14, 1
  %.not = icmp eq i64 %15, 0
  br i1 %.not, label %16, label %lean_dec.exit

16:                                               ; preds = %13
  %17 = load i32, ptr %2, align 4, !tbaa !8
  %18 = icmp sgt i32 %17, 1
  br i1 %18, label %19, label %21, !prof !11

19:                                               ; preds = %16
  %20 = add nsw i32 %17, -1
  store i32 %20, ptr %2, align 4, !tbaa !8
  br label %lean_dec.exit

21:                                               ; preds = %16
  %.not.i = icmp eq i32 %17, 0
  br i1 %.not.i, label %lean_dec.exit, label %22

22:                                               ; preds = %21
  tail call void @lean_dec_ref_cold(ptr noundef nonnull %2) #5
  br label %lean_dec.exit

lean_dec.exit:                                    ; preds = %22, %21, %19, %13
  %23 = tail call ptr @lean_apply_8(ptr noundef %3, ptr noundef nonnull inttoptr (i64 1 to ptr), ptr noundef %4, ptr noundef %5, ptr noundef %6, ptr noundef %7, ptr noundef %8, ptr noundef %9, ptr noundef %10) #5
  br label %27

24:                                               ; preds = %11
  %25 = tail call ptr @lean_array_to_list(ptr noundef %2) #5
  %26 = tail call ptr @l___private_Lean_Elab_Deriving_Inhabited_0__Lean_Elab_mkInhabitedInstanceUsing_addLocalInstancesForParamsAux___rarg(ptr noundef %3, ptr noundef %25, ptr noundef nonnull inttoptr (i64 1 to ptr), ptr noundef nonnull inttoptr (i64 1 to ptr), ptr noundef %4, ptr noundef %5, ptr noundef %6, ptr noundef %7, ptr noundef %8, ptr noundef %9, ptr noundef %10)
  br label %27

27:                                               ; preds = %24, %lean_dec.exit
  %.0 = phi ptr [ %23, %lean_dec.exit ], [ %26, %24 ]
  ret ptr %.0
}